target datalayout = "e-m:e-p270:32:32-p271:32:32-p272:64:64-i64:64-i128:128-f80:128-n8:16:32:64-S128"
target triple = "x86_64-pc-linux-gnu"

@tcg_ctx = external thread_local global ptr, align 8

; Function Attrs: inlinehint nounwind sspstrong uwtable
define internal ptr @tcgv_i32_temp(ptr noundef %0) #4 {
  %2 = alloca ptr, align 8
  store ptr %0, ptr %2, align 8
  %3 = call align 8 ptr @llvm.threadlocal.address.p0(ptr align 8 @tcg_ctx)
  %4 = load ptr, ptr %3, align 8
  %5 = load ptr, ptr %2, align 8
  %6 = ptrtoint ptr %5 to i64
  %7 = getelementptr inbounds nuw i8, ptr %4, i64 %6
  ret ptr %7
}

; Function Attrs: inlinehint nounwind sspstrong uwtable
define internal i64 @temp_arg(ptr noundef %0) #4 {
  %2 = alloca ptr, align 8
  store ptr %0, ptr %2, align 8
  %3 = load ptr, ptr %2, align 8
  %4 = ptrtoint ptr %3 to i64
  ret i64 %4
}

; Function Attrs: inlinehint nounwind sspstrong uwtable
define internal ptr @tcgv_i64_temp(ptr noundef %0) #4 {
  %2 = alloca ptr, align 8
  store ptr %0, ptr %2, align 8
  %3 = load ptr, ptr %2, align 8
  %4 = call ptr @tcgv_i32_temp(ptr noundef %3)
  ret ptr %4
}

; Function Attrs: nounwind sspstrong uwtable
define internal void @tcg_gen_op3_i64(i32 noundef %0, ptr noundef %1, ptr noundef %2, ptr noundef %3) #3 {
  %5 = alloca i32, align 4
  %6 = alloca ptr, align 8
  %7 = alloca ptr, align 8
  %8 = alloca ptr, align 8
  store i32 %0, ptr %5, align 4
  store ptr %1, ptr %6, align 8
  store ptr %2, ptr %7, align 8
  store ptr %3, ptr %8, align 8
  %9 = load i32, ptr %5, align 4
  %10 = load ptr, ptr %6, align 8
  %11 = call i64 @tcgv_i64_arg(ptr noundef %10)
  %12 = load ptr, ptr %7, align 8
  %13 = call i64 @tcgv_i64_arg(ptr noundef %12)
  %14 = load ptr, ptr %8, align 8
  %15 = call i64 @tcgv_i64_arg(ptr noundef %14)
  %16 = call ptr @tcg_gen_op3(i32 noundef %9, i32 noundef 1, i64 noundef %11, i64 noundef %13, i64 noundef %15)
  ret void
}

; Function Attrs: nounwind sspstrong uwtable
define dso_local void @tcg_gen_rotl_i64(ptr noundef %0, ptr noundef %1, ptr noundef %2) #3 {
  %4 = alloca ptr, align 8
  %5 = alloca ptr, align 8
  %6 = alloca ptr, align 8
  store ptr %0, ptr %4, align 8
  store ptr %1, ptr %5, align 8
  store ptr %2, ptr %6, align 8
  %7 = load ptr, ptr %4, align 8
  %8 = load ptr, ptr %5, align 8
  %9 = load ptr, ptr %6, align 8
  call void @tcg_gen_op3_i64(i32 noundef 93, ptr noundef %7, ptr noundef %8, ptr noundef %9)
  ret void
}

; Function Attrs: nounwind sspstrong uwtable
define dso_local void @tcg_gen_shl_i64(ptr noundef %0, ptr noundef %1, ptr noundef %2) #3 {
  %4 = alloca ptr, align 8
  %5 = alloca ptr, align 8
  %6 = alloca ptr, align 8
  store ptr %0, ptr %4, align 8
  store ptr %1, ptr %5, align 8
  store ptr %2, ptr %6, align 8
  %7 = load ptr, ptr %4, align 8
  %8 = load ptr, ptr %5, align 8
  %9 = load ptr, ptr %6, align 8
  call void @tcg_gen_op3_i64(i32 noundef 90, ptr noundef %7, ptr noundef %8, ptr noundef %9)
  ret void
}

; Function Attrs: inlinehint nounwind sspstrong uwtable
define internal i64 @tcgv_i64_arg(ptr noundef %0) #4 {
  %2 = alloca ptr, align 8
  store ptr %0, ptr %2, align 8
  %3 = load ptr, ptr %2, align 8
  %4 = call ptr @tcgv_i64_temp(ptr noundef %3)
  %5 = call i64 @temp_arg(ptr noundef %4)
  ret i64 %5
}

; Function Attrs: nounwind sspstrong uwtable
define internal void @tcg_gen_op2_i64(i32 noundef %0, ptr noundef %1, ptr noundef %2) #3 {
  %4 = alloca i32, align 4
  %5 = alloca ptr, align 8
  %6 = alloca ptr, align 8
  store i32 %0, ptr %4, align 4
  store ptr %1, ptr %5, align 8
  store ptr %2, ptr %6, align 8
  %7 = load i32, ptr %4, align 4
  %8 = load ptr, ptr %5, align 8
  %9 = call i64 @tcgv_i64_arg(ptr noundef %8)
  %10 = load ptr, ptr %6, align 8
  %11 = call i64 @tcgv_i64_arg(ptr noundef %10)
  %12 = call ptr @tcg_gen_op2(i32 noundef %7, i32 noundef 1, i64 noundef %9, i64 noundef %11)
  ret void
}

; Function Attrs: nounwind sspstrong uwtable
define dso_local void @tcg_gen_or_i64(ptr noundef %0, ptr noundef %1, ptr noundef %2) #3 {
  %4 = alloca ptr, align 8
  %5 = alloca ptr, align 8
  %6 = alloca ptr, align 8
  store ptr %0, ptr %4, align 8
  store ptr %1, ptr %5, align 8
  store ptr %2, ptr %6, align 8
  %7 = load ptr, ptr %4, align 8
  %8 = load ptr, ptr %5, align 8
  %9 = load ptr, ptr %6, align 8
  call void @tcg_gen_op3_i64(i32 noundef 88, ptr noundef %7, ptr noundef %8, ptr noundef %9)
  ret void
}

; Function Attrs: nounwind sspstrong uwtable
define dso_local void @tcg_gen_rotli_i64(ptr noundef %0, ptr noundef %1, i64 noundef %2) #3 {
  %4 = alloca ptr, align 8
  %5 = alloca ptr, align 8
  %6 = alloca i64, align 8
  store ptr %0, ptr %4, align 8
  store ptr %1, ptr %5, align 8
  store i64 %2, ptr %6, align 8
  br label %7

7:                                                ; preds = %3
  %8 = load i64, ptr %6, align 8
  %9 = icmp sge i64 %8, 0
  br i1 %9, label %10, label %13

10:                                               ; preds = %7
  %11 = load i64, ptr %6, align 8
  %12 = icmp slt i64 %11, 64
  br i1 %12, label %14, label %13

13:                                               ; preds = %10, %7
  unreachable

14:                                               ; preds = %10
  br label %15

15:                                               ; preds = %14
  %16 = load i64, ptr %6, align 8
  %17 = icmp eq i64 %16, 0
  br i1 %17, label %18, label %21

18:                                               ; preds = %15
  %19 = load ptr, ptr %4, align 8
  %20 = load ptr, ptr %5, align 8
  call void @tcg_gen_mov_i64(ptr noundef %19, ptr noundef %20)
  br label %26

21:                                               ; preds = %15
  %22 = load ptr, ptr %4, align 8
  %23 = load ptr, ptr %5, align 8
  %24 = load i64, ptr %6, align 8
  %25 = call ptr @tcg_constant_i64(i64 noundef %24)
  call void @tcg_gen_rotl_i64(ptr noundef %22, ptr noundef %23, ptr noundef %25)
  br label %26

26:                                               ; preds = %21, %18
  ret void
}

; Function Attrs: nounwind sspstrong uwtable
define dso_local void @tcg_gen_shli_i64(ptr noundef %0, ptr noundef %1, i64 noundef %2) #3 {
  %4 = alloca ptr, align 8
  %5 = alloca ptr, align 8
  %6 = alloca i64, align 8
  store ptr %0, ptr %4, align 8
  store ptr %1, ptr %5, align 8
  store i64 %2, ptr %6, align 8
  br label %7

7:                                                ; preds = %3
  %8 = load i64, ptr %6, align 8
  %9 = icmp sge i64 %8, 0
  br i1 %9, label %10, label %13

10:                                               ; preds = %7
  %11 = load i64, ptr %6, align 8
  %12 = icmp slt i64 %11, 64
  br i1 %12, label %14, label %13

13:                                               ; preds = %10, %7
  unreachable

14:                                               ; preds = %10
  br label %15

15:                                               ; preds = %14
  %16 = load i64, ptr %6, align 8
  %17 = icmp eq i64 %16, 0
  br i1 %17, label %18, label %21

18:                                               ; preds = %15
  %19 = load ptr, ptr %4, align 8
  %20 = load ptr, ptr %5, align 8
  call void @tcg_gen_mov_i64(ptr noundef %19, ptr noundef %20)
  br label %26

21:                                               ; preds = %15
  %22 = load ptr, ptr %4, align 8
  %23 = load ptr, ptr %5, align 8
  %24 = load i64, ptr %6, align 8
  %25 = call ptr @tcg_constant_i64(i64 noundef %24)
  call void @tcg_gen_shl_i64(ptr noundef %22, ptr noundef %23, ptr noundef %25)
  br label %26

26:                                               ; preds = %21, %18
  ret void
}

; Function Attrs: nounwind sspstrong uwtable
define internal void @tcg_gen_op5ii_i64(i32 noundef %0, ptr noundef %1, ptr noundef %2, ptr noundef %3, i64 noundef %4, i64 noundef %5) #3 {
  %7 = alloca i32, align 4
  %8 = alloca ptr, align 8
  %9 = alloca ptr, align 8
  %10 = alloca ptr, align 8
  %11 = alloca i64, align 8
  %12 = alloca i64, align 8
  store i32 %0, ptr %7, align 4
  store ptr %1, ptr %8, align 8
  store ptr %2, ptr %9, align 8
  store ptr %3, ptr %10, align 8
  store i64 %4, ptr %11, align 8
  store i64 %5, ptr %12, align 8
  %13 = load i32, ptr %7, align 4
  %14 = load ptr, ptr %8, align 8
  %15 = call i64 @tcgv_i64_arg(ptr noundef %14)
  %16 = load ptr, ptr %9, align 8
  %17 = call i64 @tcgv_i64_arg(ptr noundef %16)
  %18 = load ptr, ptr %10, align 8
  %19 = call i64 @tcgv_i64_arg(ptr noundef %18)
  %20 = load i64, ptr %11, align 8
  %21 = load i64, ptr %12, align 8
  %22 = call ptr @tcg_gen_op5(i32 noundef %13, i32 noundef 1, i64 noundef %15, i64 noundef %17, i64 noundef %19, i64 noundef %20, i64 noundef %21)
  ret void
}

; Function Attrs: nounwind sspstrong uwtable
define dso_local void @tcg_gen_mov_i64(ptr noundef %0, ptr noundef %1) #3 {
  %3 = alloca ptr, align 8
  %4 = alloca ptr, align 8
  store ptr %0, ptr %3, align 8
  store ptr %1, ptr %4, align 8
  %5 = load ptr, ptr %3, align 8
  %6 = load ptr, ptr %4, align 8
  %7 = icmp eq ptr %5, %6
  br i1 %7, label %8, label %9

8:                                                ; preds = %2
  br label %12

9:                                                ; preds = %2
  %10 = load ptr, ptr %3, align 8
  %11 = load ptr, ptr %4, align 8
  call void @tcg_gen_op2_i64(i32 noundef 63, ptr noundef %10, ptr noundef %11)
  br label %12

12:                                               ; preds = %9, %8
  ret void
}

; Function Attrs: nounwind sspstrong uwtable
define dso_local void @tcg_gen_deposit_i64(ptr noundef %0, ptr noundef %1, ptr noundef %2, i32 noundef %3, i32 noundef %4) #3 {
  %6 = alloca ptr, align 8
  %7 = alloca ptr, align 8
  %8 = alloca ptr, align 8
  %9 = alloca i32, align 4
  %10 = alloca i32, align 4
  %11 = alloca i64, align 8
  %12 = alloca ptr, align 8
  %13 = alloca i32, align 4
  store ptr %0, ptr %6, align 8
  store ptr %1, ptr %7, align 8
  store ptr %2, ptr %8, align 8
  store i32 %3, ptr %9, align 4
  store i32 %4, ptr %10, align 4
  call void @llvm.lifetime.start.p0(i64 8, ptr %11) #7
  store i64 0, ptr %11, align 8, !annotation !6
  call void @llvm.lifetime.start.p0(i64 8, ptr %12) #7
  store ptr null, ptr %12, align 8, !annotation !6
  br label %14

14:                                               ; preds = %5
  %15 = load i32, ptr %9, align 4
  %16 = icmp ult i32 %15, 64
  br i1 %16, label %18, label %17

17:                                               ; preds = %14
  unreachable

18:                                               ; preds = %14
  br label %19

19:                                               ; preds = %18
  br label %20

20:                                               ; preds = %19
  br label %21

21:                                               ; preds = %20
  %22 = load i32, ptr %10, align 4
  %23 = icmp ugt i32 %22, 0
  br i1 %23, label %25, label %24

24:                                               ; preds = %21
  unreachable

25:                                               ; preds = %21
  br label %26

26:                                               ; preds = %25
  br label %27

27:                                               ; preds = %26
  br label %28

28:                                               ; preds = %27
  %29 = load i32, ptr %10, align 4
  %30 = icmp ule i32 %29, 64
  br i1 %30, label %32, label %31

31:                                               ; preds = %28
  unreachable

32:                                               ; preds = %28
  br label %33

33:                                               ; preds = %32
  br label %34

34:                                               ; preds = %33
  br label %35

35:                                               ; preds = %34
  %36 = load i32, ptr %9, align 4
  %37 = load i32, ptr %10, align 4
  %38 = add i32 %36, %37
  %39 = icmp ule i32 %38, 64
  br i1 %39, label %41, label %40

40:                                               ; preds = %35
  unreachable

41:                                               ; preds = %35
  br label %42

42:                                               ; preds = %41
  br label %43

43:                                               ; preds = %42
  %44 = load i32, ptr %10, align 4
  %45 = icmp eq i32 %44, 64
  br i1 %45, label %46, label %49

46:                                               ; preds = %43
  %47 = load ptr, ptr %6, align 8
  %48 = load ptr, ptr %8, align 8
  call void @tcg_gen_mov_i64(ptr noundef %47, ptr noundef %48)
  store i32 1, ptr %13, align 4
  br label %128

49:                                               ; preds = %43
  %50 = load i32, ptr %9, align 4
  %51 = icmp eq i32 %50, 0
  br i1 %51, label %52, label %66

52:                                               ; preds = %49
  %53 = load i32, ptr %10, align 4
  %54 = icmp eq i32 %53, 8
  br i1 %54, label %58, label %55

55:                                               ; preds = %52
  %56 = load i32, ptr %10, align 4
  %57 = icmp eq i32 %56, 16
  br i1 %57, label %58, label %66

58:                                               ; preds = %55, %52
  %59 = load ptr, ptr %6, align 8
  %60 = load ptr, ptr %7, align 8
  %61 = load ptr, ptr %8, align 8
  %62 = load i32, ptr %9, align 4
  %63 = zext i32 %62 to i64
  %64 = load i32, ptr %10, align 4
  %65 = zext i32 %64 to i64
  call void @tcg_gen_op5ii_i64(i32 noundef 95, ptr noundef %59, ptr noundef %60, ptr noundef %61, i64 noundef %63, i64 noundef %65)
  store i32 1, ptr %13, align 4
  br label %128

66:                                               ; preds = %55, %49
  %67 = call ptr @tcg_temp_ebb_new_i64()
  store ptr %67, ptr %12, align 8
  %68 = load i32, ptr %9, align 4
  %69 = load i32, ptr %10, align 4
  %70 = add i32 %68, %69
  %71 = icmp eq i32 %70, 64
  br i1 %71, label %72, label %81

72:                                               ; preds = %66
  %73 = load ptr, ptr %12, align 8
  %74 = load ptr, ptr %7, align 8
  %75 = load i32, ptr %10, align 4
  %76 = zext i32 %75 to i64
  call void @tcg_gen_shli_i64(ptr noundef %73, ptr noundef %74, i64 noundef %76)
  %77 = load ptr, ptr %6, align 8
  %78 = load ptr, ptr %12, align 8
  %79 = load ptr, ptr %8, align 8
  %80 = load i32, ptr %10, align 4
  call void @tcg_gen_extract2_i64(ptr noundef %77, ptr noundef %78, ptr noundef %79, i32 noundef %80)
  br label %126

81:                                               ; preds = %66
  %82 = load i32, ptr %9, align 4
  %83 = icmp eq i32 %82, 0
  br i1 %83, label %84, label %93

84:                                               ; preds = %81
  %85 = load ptr, ptr %6, align 8
  %86 = load ptr, ptr %7, align 8
  %87 = load ptr, ptr %8, align 8
  %88 = load i32, ptr %10, align 4
  call void @tcg_gen_extract2_i64(ptr noundef %85, ptr noundef %86, ptr noundef %87, i32 noundef %88)
  %89 = load ptr, ptr %6, align 8
  %90 = load ptr, ptr %6, align 8
  %91 = load i32, ptr %10, align 4
  %92 = zext i32 %91 to i64
  call void @tcg_gen_rotli_i64(ptr noundef %89, ptr noundef %90, i64 noundef %92)
  br label %126

93:                                               ; preds = %81
  %94 = load i32, ptr %10, align 4
  %95 = zext i32 %94 to i64
  %96 = shl i64 1, %95
  %97 = sub i64 %96, 1
  store i64 %97, ptr %11, align 8
  %98 = load i32, ptr %9, align 4
  %99 = load i32, ptr %10, align 4
  %100 = add i32 %98, %99
  %101 = icmp ult i32 %100, 64
  br i1 %101, label %102, label %110

102:                                              ; preds = %93
  %103 = load ptr, ptr %12, align 8
  %104 = load ptr, ptr %8, align 8
  %105 = load i64, ptr %11, align 8
  call void @tcg_gen_andi_i64(ptr noundef %103, ptr noundef %104, i64 noundef %105)
  %106 = load ptr, ptr %12, align 8
  %107 = load ptr, ptr %12, align 8
  %108 = load i32, ptr %9, align 4
  %109 = zext i32 %108 to i64
  call void @tcg_gen_shli_i64(ptr noundef %106, ptr noundef %107, i64 noundef %109)
  br label %115

110:                                              ; preds = %93
  %111 = load ptr, ptr %12, align 8
  %112 = load ptr, ptr %8, align 8
  %113 = load i32, ptr %9, align 4
  %114 = zext i32 %113 to i64
  call void @tcg_gen_shli_i64(ptr noundef %111, ptr noundef %112, i64 noundef %114)
  br label %115

115:                                              ; preds = %110, %102
  %116 = load ptr, ptr %6, align 8
  %117 = load ptr, ptr %7, align 8
  %118 = load i64, ptr %11, align 8
  %119 = load i32, ptr %9, align 4
  %120 = zext i32 %119 to i64
  %121 = shl i64 %118, %120
  %122 = xor i64 %121, -1
  call void @tcg_gen_andi_i64(ptr noundef %116, ptr noundef %117, i64 noundef %122)
  %123 = load ptr, ptr %6, align 8
  %124 = load ptr, ptr %6, align 8
  %125 = load ptr, ptr %12, align 8
  call void @tcg_gen_or_i64(ptr noundef %123, ptr noundef %124, ptr noundef %125)
  br label %126

126:                                              ; preds = %115, %84, %72
  %127 = load ptr, ptr %12, align 8
  call void @tcg_temp_free_i64(ptr noundef %127)
  store i32 0, ptr %13, align 4
  br label %128

128:                                              ; preds = %126, %58, %46
  call void @llvm.lifetime.end.p0(i64 8, ptr %12) #7
  call void @llvm.lifetime.end.p0(i64 8, ptr %11) #7
  %129 = load i32, ptr %13, align 4
  switch i32 %129, label %131 [
    i32 0, label %130
    i32 1, label %130
  ]

130:                                              ; preds = %128, %128
  ret void

131:                                              ; preds = %128
  unreachable
}