; Function Attrs: nounwind sspstrong uwtable
define dso_local void @tcg_gen_deposit_i64(ptr noundef %0, ptr noundef %1, ptr noundef %2, i32 noundef %3, i32 noundef %4) local_unnamed_addr #2 {
  %6 = icmp samesign ult i32 %3, 64
  tail call void @llvm.assume(i1 %6)
  %7 = icmp ne i32 %4, 0
  tail call void @llvm.assume(i1 %7)
  %8 = add nuw nsw i32 %4, %3
  %9 = icmp samesign ult i32 %8, 65
  tail call void @llvm.assume(i1 %9)
  %10 = icmp eq i32 %4, 64
  br i1 %10, label %11, label %23

11:                                               ; preds = %5
  %12 = icmp eq ptr %0, %2
  br i1 %12, label %tcg_gen_mov_i64.exit, label %13

13:                                               ; preds = %11
  %14 = tail call align 8 ptr @llvm.threadlocal.address.p0(ptr align 8 @tcg_ctx)
  %15 = load ptr, ptr %14, align 8
  %16 = ptrtoint ptr %0 to i64
  %17 = getelementptr inbounds nuw i8, ptr %15, i64 %16
  %18 = ptrtoint ptr %17 to i64
  %19 = ptrtoint ptr %2 to i64
  %20 = getelementptr inbounds nuw i8, ptr %15, i64 %19
  %21 = ptrtoint ptr %20 to i64
  %22 = tail call ptr @tcg_gen_op2(i32 noundef 63, i32 noundef 1, i64 noundef %18, i64 noundef %21)
  br label %tcg_gen_mov_i64.exit

23:                                               ; preds = %5
  %24 = icmp eq i32 %3, 0
  br i1 %24, label %25, label %.thread

25:                                               ; preds = %23
  switch i32 %4, label %40 [
    i32 16, label %26
    i32 8, label %26
  ]

26:                                               ; preds = %25, %25
  %27 = zext nneg i32 %4 to i64
  %28 = tail call align 8 ptr @llvm.threadlocal.address.p0(ptr align 8 @tcg_ctx)
  %29 = load ptr, ptr %28, align 8
  %30 = ptrtoint ptr %0 to i64
  %31 = getelementptr inbounds nuw i8, ptr %29, i64 %30
  %32 = ptrtoint ptr %31 to i64
  %33 = ptrtoint ptr %1 to i64
  %34 = getelementptr inbounds nuw i8, ptr %29, i64 %33
  %35 = ptrtoint ptr %34 to i64
  %36 = ptrtoint ptr %2 to i64
  %37 = getelementptr inbounds nuw i8, ptr %29, i64 %36
  %38 = ptrtoint ptr %37 to i64
  %39 = tail call ptr @tcg_gen_op5(i32 noundef 95, i32 noundef 1, i64 noundef %32, i64 noundef %35, i64 noundef %38, i64 noundef 0, i64 noundef range(i64 1, 64) %27)
  br label %tcg_gen_mov_i64.exit

40:                                               ; preds = %25
  %41 = tail call ptr @tcg_temp_ebb_new_i64() #6
  %42 = icmp eq i32 %8, 64
  br i1 %42, label %tcg_gen_shli_i64.exit, label %tcg_gen_rotli_i64.exit

.thread:                                          ; preds = %23
  %43 = tail call ptr @tcg_temp_ebb_new_i64() #6
  %44 = icmp eq i32 %8, 64
  br i1 %44, label %tcg_gen_shli_i64.exit, label %tcg_gen_shli_i64.exit57

tcg_gen_shli_i64.exit:                            ; preds = %.thread, %40
  %45 = phi ptr [ %43, %.thread ], [ %41, %40 ]
  %46 = zext nneg i32 %4 to i64
  %or.cond.i = icmp samesign ult i32 %4, 64
  tail call void @llvm.assume(i1 %or.cond.i)
  %47 = tail call ptr @tcg_constant_i64(i64 noundef %46) #6
  %48 = tail call align 8 ptr @llvm.threadlocal.address.p0(ptr align 8 @tcg_ctx)
  %49 = load ptr, ptr %48, align 8
  %50 = ptrtoint ptr %45 to i64
  %51 = getelementptr inbounds nuw i8, ptr %49, i64 %50
  %52 = ptrtoint ptr %51 to i64
  %53 = ptrtoint ptr %1 to i64
  %54 = getelementptr inbounds nuw i8, ptr %49, i64 %53
  %55 = ptrtoint ptr %54 to i64
  %56 = ptrtoint ptr %47 to i64
  %57 = getelementptr inbounds nuw i8, ptr %49, i64 %56
  %58 = ptrtoint ptr %57 to i64
  %59 = tail call ptr @tcg_gen_op3(i32 noundef 90, i32 noundef 1, i64 noundef %52, i64 noundef %55, i64 noundef %58)
  tail call void @tcg_gen_extract2_i64(ptr noundef %0, ptr noundef %45, ptr noundef %2, i32 noundef %4)
  br label %93

tcg_gen_rotli_i64.exit:                           ; preds = %40
  tail call void @tcg_gen_extract2_i64(ptr noundef %0, ptr noundef %1, ptr noundef %2, i32 noundef %4)
  %60 = zext nneg i32 %4 to i64
  %or.cond.i55 = icmp samesign ult i32 %4, 64
  tail call void @llvm.assume(i1 %or.cond.i55)
  %61 = tail call ptr @tcg_constant_i64(i64 noundef %60) #6
  %62 = tail call align 8 ptr @llvm.threadlocal.address.p0(ptr align 8 @tcg_ctx)
  %63 = load ptr, ptr %62, align 8
  %64 = ptrtoint ptr %0 to i64
  %65 = getelementptr inbounds nuw i8, ptr %63, i64 %64
  %66 = ptrtoint ptr %65 to i64
  %67 = ptrtoint ptr %61 to i64
  %68 = getelementptr inbounds nuw i8, ptr %63, i64 %67
  %69 = ptrtoint ptr %68 to i64
  %70 = tail call ptr @tcg_gen_op3(i32 noundef 93, i32 noundef 1, i64 noundef %66, i64 noundef %66, i64 noundef %69)
  br label %93

tcg_gen_shli_i64.exit57:                          ; preds = %.thread
  %71 = zext nneg i32 %4 to i64
  %notmask = shl nsw i64 -1, %71
  %72 = xor i64 %notmask, -1
  tail call void @tcg_gen_andi_i64(ptr noundef %43, ptr noundef %2, i64 noundef %72)
  %73 = zext nneg i32 %3 to i64
  %74 = tail call ptr @tcg_constant_i64(i64 noundef %73) #6
  %75 = tail call align 8 ptr @llvm.threadlocal.address.p0(ptr align 8 @tcg_ctx)
  %76 = load ptr, ptr %75, align 8
  %77 = ptrtoint ptr %43 to i64
  %78 = getelementptr inbounds nuw i8, ptr %76, i64 %77
  %79 = ptrtoint ptr %78 to i64
  %80 = ptrtoint ptr %74 to i64
  %81 = getelementptr inbounds nuw i8, ptr %76, i64 %80
  %82 = ptrtoint ptr %81 to i64
  %83 = tail call ptr @tcg_gen_op3(i32 noundef 90, i32 noundef 1, i64 noundef %79, i64 noundef %79, i64 noundef %82)
  %84 = shl i64 %72, %73
  %85 = xor i64 %84, -1
  tail call void @tcg_gen_andi_i64(ptr noundef %0, ptr noundef %1, i64 noundef %85)
  %86 = load ptr, ptr %75, align 8
  %87 = ptrtoint ptr %0 to i64
  %88 = getelementptr inbounds nuw i8, ptr %86, i64 %87
  %89 = ptrtoint ptr %88 to i64
  %90 = getelementptr inbounds nuw i8, ptr %86, i64 %77
  %91 = ptrtoint ptr %90 to i64
  %92 = tail call ptr @tcg_gen_op3(i32 noundef 88, i32 noundef 1, i64 noundef %89, i64 noundef %89, i64 noundef %91)
  br label %93

93:                                               ; preds = %tcg_gen_shli_i64.exit57, %tcg_gen_rotli_i64.exit, %tcg_gen_shli_i64.exit
  %94 = phi ptr [ %43, %tcg_gen_shli_i64.exit57 ], [ %41, %tcg_gen_rotli_i64.exit ], [ %45, %tcg_gen_shli_i64.exit ]
  tail call void @tcg_temp_free_i64(ptr noundef %94) #6
  br label %tcg_gen_mov_i64.exit

tcg_gen_mov_i64.exit:                             ; preds = %13, %11, %93, %26
  ret void
}